target datalayout = "e-m:e-p270:32:32-p271:32:32-p272:64:64-i64:64-i128:128-f80:128-n8:16:32:64-S128"
target triple = "x86_64-pc-linux-gnu"

%struct.AVFilterContext = type { ptr, ptr, ptr, ptr, ptr, i32, ptr, ptr, i32, ptr, ptr, i32, i32, ptr, ptr, ptr, ptr, i32, ptr, i32, i32 }
%struct.ThresholdContext = type { ptr, i32, i32, i32, i32, [4 x i32], [4 x i32], ptr, [4 x ptr], %struct.FFFrameSync }
%struct.FFFrameSync = type { ptr, ptr, i32, %struct.AVRational, i64, ptr, ptr, i32, i32, i8, i8, ptr, i32, i32, i32, i32 }
%struct.AVRational = type { i32, i32 }
%struct.AVFilterLink = type { ptr, ptr, ptr, ptr, i32, i32, i32, i32, %struct.AVRational, i32, i32, i32, %struct.AVChannelLayout, %struct.AVRational, ptr, i32, %struct.AVFilterFormatsConfig, %struct.AVFilterFormatsConfig }
%struct.AVChannelLayout = type { i32, i32, %union.anon.1, ptr }
%union.anon.1 = type { i64 }
%struct.AVFilterFormatsConfig = type { ptr, ptr, ptr, ptr, ptr }
%struct.AVPixFmtDescriptor = type { ptr, i8, i8, i8, i64, [4 x %struct.AVComponentDescriptor], ptr }
%struct.AVComponentDescriptor = type { i32, i32, i32, i32, i32 }

; Function Attrs: nounwind uwtable
define internal void @ff_threshold_init(ptr noundef %0) #2 {
  %2 = alloca ptr, align 8
  store ptr %0, ptr %2, align 8, !tbaa !22
  %3 = load ptr, ptr %2, align 8, !tbaa !22
  %4 = getelementptr inbounds nuw %struct.ThresholdContext, ptr %3, i32 0, i32 1
  %5 = load i32, ptr %4, align 8, !tbaa !50
  %6 = icmp eq i32 %5, 8
  br i1 %6, label %7, label %12

7:                                                ; preds = %1
  %8 = load ptr, ptr %2, align 8, !tbaa !22
  %9 = getelementptr inbounds nuw %struct.ThresholdContext, ptr %8, i32 0, i32 7
  store ptr @threshold8, ptr %9, align 8, !tbaa !51
  %10 = load ptr, ptr %2, align 8, !tbaa !22
  %11 = getelementptr inbounds nuw %struct.ThresholdContext, ptr %10, i32 0, i32 3
  store i32 1, ptr %11, align 8, !tbaa !52
  br label %17

12:                                               ; preds = %1
  %13 = load ptr, ptr %2, align 8, !tbaa !22
  %14 = getelementptr inbounds nuw %struct.ThresholdContext, ptr %13, i32 0, i32 7
  store ptr @threshold16, ptr %14, align 8, !tbaa !51
  %15 = load ptr, ptr %2, align 8, !tbaa !22
  %16 = getelementptr inbounds nuw %struct.ThresholdContext, ptr %15, i32 0, i32 3
  store i32 2, ptr %16, align 8, !tbaa !52
  br label %17

17:                                               ; preds = %12, %7
  ret void
}

; Function Attrs: nounwind uwtable
define internal i32 @config_input(ptr noundef %0) #2 {
  %2 = alloca ptr, align 8
  %3 = alloca ptr, align 8
  %4 = alloca ptr, align 8
  %5 = alloca ptr, align 8
  %6 = alloca i32, align 4
  %7 = alloca i32, align 4
  store ptr %0, ptr %2, align 8, !tbaa !24
  call void @llvm.lifetime.start.p0(i64 8, ptr %3) #9
  %8 = load ptr, ptr %2, align 8, !tbaa !24
  %9 = getelementptr inbounds nuw %struct.AVFilterLink, ptr %8, i32 0, i32 2
  %10 = load ptr, ptr %9, align 8, !tbaa !26
  store ptr %10, ptr %3, align 8, !tbaa !4
  call void @llvm.lifetime.start.p0(i64 8, ptr %4) #9
  %11 = load ptr, ptr %3, align 8, !tbaa !4
  %12 = getelementptr inbounds nuw %struct.AVFilterContext, ptr %11, i32 0, i32 9
  %13 = load ptr, ptr %12, align 8, !tbaa !9
  store ptr %13, ptr %4, align 8, !tbaa !22
  call void @llvm.lifetime.start.p0(i64 8, ptr %5) #9
  %14 = load ptr, ptr %2, align 8, !tbaa !24
  %15 = getelementptr inbounds nuw %struct.AVFilterLink, ptr %14, i32 0, i32 5
  %16 = load i32, ptr %15, align 4, !tbaa !34
  %17 = call ptr @av_pix_fmt_desc_get(i32 noundef %16)
  store ptr %17, ptr %5, align 8, !tbaa !35
  call void @llvm.lifetime.start.p0(i64 4, ptr %6) #9
  call void @llvm.lifetime.start.p0(i64 4, ptr %7) #9
  %18 = load ptr, ptr %2, align 8, !tbaa !24
  %19 = getelementptr inbounds nuw %struct.AVFilterLink, ptr %18, i32 0, i32 5
  %20 = load i32, ptr %19, align 4, !tbaa !34
  %21 = call i32 @av_pix_fmt_count_planes(i32 noundef %20)
  %22 = load ptr, ptr %4, align 8, !tbaa !22
  %23 = getelementptr inbounds nuw %struct.ThresholdContext, ptr %22, i32 0, i32 4
  store i32 %21, ptr %23, align 4, !tbaa !37
  %24 = load ptr, ptr %5, align 8, !tbaa !35
  %25 = getelementptr inbounds nuw %struct.AVPixFmtDescriptor, ptr %24, i32 0, i32 2
  %26 = load i8, ptr %25, align 1, !tbaa !42
  %27 = zext i8 %26 to i32
  store i32 %27, ptr %7, align 4, !tbaa !44
  %28 = load ptr, ptr %5, align 8, !tbaa !35
  %29 = getelementptr inbounds nuw %struct.AVPixFmtDescriptor, ptr %28, i32 0, i32 3
  %30 = load i8, ptr %29, align 2, !tbaa !45
  %31 = zext i8 %30 to i32
  store i32 %31, ptr %6, align 4, !tbaa !44
  %32 = load i32, ptr %6, align 4, !tbaa !44
  %33 = call i1 @llvm.is.constant.i32(i32 %32)
  br i1 %33, label %42, label %34

34:                                               ; preds = %1
  %35 = load ptr, ptr %2, align 8, !tbaa !24
  %36 = getelementptr inbounds nuw %struct.AVFilterLink, ptr %35, i32 0, i32 7
  %37 = load i32, ptr %36, align 4, !tbaa !46
  %38 = sub nsw i32 0, %37
  %39 = load i32, ptr %6, align 4, !tbaa !44
  %40 = ashr i32 %38, %39
  %41 = sub nsw i32 0, %40
  br label %52

42:                                               ; preds = %1
  %43 = load ptr, ptr %2, align 8, !tbaa !24
  %44 = getelementptr inbounds nuw %struct.AVFilterLink, ptr %43, i32 0, i32 7
  %45 = load i32, ptr %44, align 4, !tbaa !46
  %46 = load i32, ptr %6, align 4, !tbaa !44
  %47 = shl i32 1, %46
  %48 = add nsw i32 %45, %47
  %49 = sub nsw i32 %48, 1
  %50 = load i32, ptr %6, align 4, !tbaa !44
  %51 = ashr i32 %49, %50
  br label %52

52:                                               ; preds = %42, %34
  %53 = phi i32 [ %41, %34 ], [ %51, %42 ]
  %54 = load ptr, ptr %4, align 8, !tbaa !22
  %55 = getelementptr inbounds nuw %struct.ThresholdContext, ptr %54, i32 0, i32 6
  %56 = getelementptr inbounds [4 x i32], ptr %55, i64 0, i64 2
  store i32 %53, ptr %56, align 8, !tbaa !44
  %57 = load ptr, ptr %4, align 8, !tbaa !22
  %58 = getelementptr inbounds nuw %struct.ThresholdContext, ptr %57, i32 0, i32 6
  %59 = getelementptr inbounds [4 x i32], ptr %58, i64 0, i64 1
  store i32 %53, ptr %59, align 4, !tbaa !44
  %60 = load ptr, ptr %2, align 8, !tbaa !24
  %61 = getelementptr inbounds nuw %struct.AVFilterLink, ptr %60, i32 0, i32 7
  %62 = load i32, ptr %61, align 4, !tbaa !46
  %63 = load ptr, ptr %4, align 8, !tbaa !22
  %64 = getelementptr inbounds nuw %struct.ThresholdContext, ptr %63, i32 0, i32 6
  %65 = getelementptr inbounds [4 x i32], ptr %64, i64 0, i64 3
  store i32 %62, ptr %65, align 4, !tbaa !44
  %66 = load ptr, ptr %4, align 8, !tbaa !22
  %67 = getelementptr inbounds nuw %struct.ThresholdContext, ptr %66, i32 0, i32 6
  %68 = getelementptr inbounds [4 x i32], ptr %67, i64 0, i64 0
  store i32 %62, ptr %68, align 8, !tbaa !44
  %69 = load i32, ptr %7, align 4, !tbaa !44
  %70 = call i1 @llvm.is.constant.i32(i32 %69)
  br i1 %70, label %79, label %71

71:                                               ; preds = %52
  %72 = load ptr, ptr %2, align 8, !tbaa !24
  %73 = getelementptr inbounds nuw %struct.AVFilterLink, ptr %72, i32 0, i32 6
  %74 = load i32, ptr %73, align 8, !tbaa !47
  %75 = sub nsw i32 0, %74
  %76 = load i32, ptr %7, align 4, !tbaa !44
  %77 = ashr i32 %75, %76
  %78 = sub nsw i32 0, %77
  br label %89

79:                                               ; preds = %52
  %80 = load ptr, ptr %2, align 8, !tbaa !24
  %81 = getelementptr inbounds nuw %struct.AVFilterLink, ptr %80, i32 0, i32 6
  %82 = load i32, ptr %81, align 8, !tbaa !47
  %83 = load i32, ptr %7, align 4, !tbaa !44
  %84 = shl i32 1, %83
  %85 = add nsw i32 %82, %84
  %86 = sub nsw i32 %85, 1
  %87 = load i32, ptr %7, align 4, !tbaa !44
  %88 = ashr i32 %86, %87
  br label %89

89:                                               ; preds = %79, %71
  %90 = phi i32 [ %78, %71 ], [ %88, %79 ]
  %91 = load ptr, ptr %4, align 8, !tbaa !22
  %92 = getelementptr inbounds nuw %struct.ThresholdContext, ptr %91, i32 0, i32 5
  %93 = getelementptr inbounds [4 x i32], ptr %92, i64 0, i64 2
  store i32 %90, ptr %93, align 8, !tbaa !44
  %94 = load ptr, ptr %4, align 8, !tbaa !22
  %95 = getelementptr inbounds nuw %struct.ThresholdContext, ptr %94, i32 0, i32 5
  %96 = getelementptr inbounds [4 x i32], ptr %95, i64 0, i64 1
  store i32 %90, ptr %96, align 4, !tbaa !44
  %97 = load ptr, ptr %2, align 8, !tbaa !24
  %98 = getelementptr inbounds nuw %struct.AVFilterLink, ptr %97, i32 0, i32 6
  %99 = load i32, ptr %98, align 8, !tbaa !47
  %100 = load ptr, ptr %4, align 8, !tbaa !22
  %101 = getelementptr inbounds nuw %struct.ThresholdContext, ptr %100, i32 0, i32 5
  %102 = getelementptr inbounds [4 x i32], ptr %101, i64 0, i64 3
  store i32 %99, ptr %102, align 4, !tbaa !44
  %103 = load ptr, ptr %4, align 8, !tbaa !22
  %104 = getelementptr inbounds nuw %struct.ThresholdContext, ptr %103, i32 0, i32 5
  %105 = getelementptr inbounds [4 x i32], ptr %104, i64 0, i64 0
  store i32 %99, ptr %105, align 8, !tbaa !44
  %106 = load ptr, ptr %5, align 8, !tbaa !35
  %107 = getelementptr inbounds nuw %struct.AVPixFmtDescriptor, ptr %106, i32 0, i32 5
  %108 = getelementptr inbounds [4 x %struct.AVComponentDescriptor], ptr %107, i64 0, i64 0
  %109 = getelementptr inbounds nuw %struct.AVComponentDescriptor, ptr %108, i32 0, i32 4
  %110 = load i32, ptr %109, align 8, !tbaa !48
  %111 = load ptr, ptr %4, align 8, !tbaa !22
  %112 = getelementptr inbounds nuw %struct.ThresholdContext, ptr %111, i32 0, i32 1
  store i32 %110, ptr %112, align 8, !tbaa !50
  %113 = load ptr, ptr %4, align 8, !tbaa !22
  call void @ff_threshold_init(ptr noundef %113)
  call void @llvm.lifetime.end.p0(i64 4, ptr %7) #9
  call void @llvm.lifetime.end.p0(i64 4, ptr %6) #9
  call void @llvm.lifetime.end.p0(i64 8, ptr %5) #9
  call void @llvm.lifetime.end.p0(i64 8, ptr %4) #9
  call void @llvm.lifetime.end.p0(i64 8, ptr %3) #9
  ret i32 0
}