; Function Attrs: nounwind uwtable
define internal noundef i32 @config_input(ptr noundef readonly captures(none) %0) #2 {
  %2 = getelementptr inbounds nuw i8, ptr %0, i64 16
  %3 = load ptr, ptr %2, align 8, !tbaa !20
  %4 = getelementptr inbounds nuw i8, ptr %3, i64 72
  %5 = load ptr, ptr %4, align 8, !tbaa !4
  %6 = getelementptr inbounds nuw i8, ptr %0, i64 36
  %7 = load i32, ptr %6, align 4, !tbaa !29
  %8 = tail call ptr @av_pix_fmt_desc_get(i32 noundef %7) #8
  %9 = load i32, ptr %6, align 4, !tbaa !29
  %10 = tail call i32 @av_pix_fmt_count_planes(i32 noundef %9) #8
  %11 = getelementptr inbounds nuw i8, ptr %5, i64 20
  store i32 %10, ptr %11, align 4, !tbaa !30
  %12 = getelementptr inbounds nuw i8, ptr %8, i64 9
  %13 = load i8, ptr %12, align 1, !tbaa !35
  %14 = getelementptr inbounds nuw i8, ptr %0, i64 44
  %15 = load i32, ptr %14, align 4, !tbaa !37
  %16 = sub nsw i32 0, %15
  %17 = getelementptr inbounds nuw i8, ptr %8, i64 10
  %18 = load i8, ptr %17, align 2, !tbaa !38
  %19 = zext nneg i8 %18 to i32
  %20 = ashr i32 %16, %19
  %21 = sub nsw i32 0, %20
  %22 = getelementptr inbounds nuw i8, ptr %5, i64 40
  %23 = getelementptr inbounds nuw i8, ptr %5, i64 48
  store i32 %21, ptr %23, align 8, !tbaa !39
  %24 = getelementptr inbounds nuw i8, ptr %5, i64 44
  store i32 %21, ptr %24, align 4, !tbaa !39
  %25 = getelementptr inbounds nuw i8, ptr %0, i64 44
  %26 = load i32, ptr %25, align 4, !tbaa !37
  %27 = getelementptr inbounds nuw i8, ptr %5, i64 52
  store i32 %26, ptr %27, align 4, !tbaa !39
  store i32 %26, ptr %22, align 8, !tbaa !39
  %28 = getelementptr inbounds nuw i8, ptr %0, i64 40
  %29 = load i32, ptr %28, align 8, !tbaa !40
  %30 = sub nsw i32 0, %29
  %31 = zext nneg i8 %13 to i32
  %32 = ashr i32 %30, %31
  %33 = sub nsw i32 0, %32
  %34 = getelementptr inbounds nuw i8, ptr %5, i64 24
  %35 = getelementptr inbounds nuw i8, ptr %5, i64 32
  store i32 %33, ptr %35, align 8, !tbaa !39
  %36 = getelementptr inbounds nuw i8, ptr %5, i64 28
  store i32 %33, ptr %36, align 4, !tbaa !39
  %37 = getelementptr inbounds nuw i8, ptr %0, i64 40
  %38 = load i32, ptr %37, align 8, !tbaa !40
  %39 = getelementptr inbounds nuw i8, ptr %5, i64 36
  store i32 %38, ptr %39, align 4, !tbaa !39
  store i32 %38, ptr %34, align 8, !tbaa !39
  %40 = getelementptr inbounds nuw i8, ptr %8, i64 40
  %41 = load i32, ptr %40, align 8, !tbaa !41
  %42 = getelementptr inbounds nuw i8, ptr %5, i64 8
  store i32 %41, ptr %42, align 8, !tbaa !43
  %43 = icmp eq i32 %41, 8
  %spec.select.i = select i1 %43, ptr @threshold8, ptr @threshold16
  %spec.select5.i = select i1 %43, i32 1, i32 2
  %44 = getelementptr inbounds nuw i8, ptr %5, i64 56
  store ptr %spec.select.i, ptr %44, align 8, !tbaa !44
  %45 = getelementptr inbounds nuw i8, ptr %5, i64 16
  store i32 %spec.select5.i, ptr %45, align 8, !tbaa !45
  ret i32 0
}